target datalayout = "e-m:e-p270:32:32-p271:32:32-p272:64:64-i64:64-i128:128-f80:128-n8:16:32:64-S128"
target triple = "x86_64-unknown-linux-gnu"

%"class.std::__cxx11::basic_string" = type { %"struct.std::__cxx11::basic_string<char>::_Alloc_hider", i64, %union.anon }
%"struct.std::__cxx11::basic_string<char>::_Alloc_hider" = type { ptr }
%union.anon = type { i64, [8 x i8] }
%struct.__va_list_tag = type { i32, i32, ptr, ptr }
%"class.std::allocator" = type { i8 }

@stderr = external global ptr, align 8

; Function Attrs: mustprogress nounwind uwtable
define internal void @_ZN4node4quic12_GLOBAL__N_116ngtcp2_debug_logEPvPKcz(ptr noundef %user_data, ptr noundef %fmt, ...) #4 {
entry:
  %user_data.addr = alloca ptr, align 8
  %fmt.addr = alloca ptr, align 8
  %ap = alloca [1 x %struct.__va_list_tag], align 16
  %format = alloca %"class.std::__cxx11::basic_string", align 8
  %ref.tmp = alloca %"class.std::allocator", align 1
  store ptr %user_data, ptr %user_data.addr, align 8
  store ptr %fmt, ptr %fmt.addr, align 8
  %arraydecay = getelementptr inbounds [1 x %struct.__va_list_tag], ptr %ap, i64 0, i64 0
  call void @llvm.va_start(ptr %arraydecay)
  %0 = load ptr, ptr %fmt.addr, align 8
  %1 = load ptr, ptr %fmt.addr, align 8
  %call = call i64 @strlen(ptr noundef %1) #18
  %add = add i64 %call, 1
  call void @_ZNSaIcEC1Ev(ptr noundef nonnull align 1 dereferenceable(1) %ref.tmp) #3
  call void @_ZNSt7__cxx1112basic_stringIcSt11char_traitsIcESaIcEEC1EPKcmRKS3_(ptr noundef nonnull align 8 dereferenceable(32) %format, ptr noundef %0, i64 noundef %add, ptr noundef nonnull align 1 dereferenceable(1) %ref.tmp)
  call void @_ZNSaIcED1Ev(ptr noundef nonnull align 1 dereferenceable(1) %ref.tmp) #3
  %2 = load ptr, ptr %fmt.addr, align 8
  %call1 = call i64 @strlen(ptr noundef %2) #18
  %call2 = call noundef nonnull align 1 dereferenceable(1) ptr @_ZNSt7__cxx1112basic_stringIcSt11char_traitsIcESaIcEEixEm(ptr noundef nonnull align 8 dereferenceable(32) %format, i64 noundef %call1)
  store i8 10, ptr %call2, align 1
  %3 = load ptr, ptr @stderr, align 8
  %call3 = call noundef ptr @_ZNKSt7__cxx1112basic_stringIcSt11char_traitsIcESaIcEE5c_strEv(ptr noundef nonnull align 8 dereferenceable(32) %format) #3
  %arraydecay4 = getelementptr inbounds [1 x %struct.__va_list_tag], ptr %ap, i64 0, i64 0
  %call5 = call i32 @vfprintf(ptr noundef %3, ptr noundef %call3, ptr noundef %arraydecay4)
  %arraydecay6 = getelementptr inbounds [1 x %struct.__va_list_tag], ptr %ap, i64 0, i64 0
  call void @llvm.va_end(ptr %arraydecay6)
  call void @_ZNSt7__cxx1112basic_stringIcSt11char_traitsIcESaIcEED1Ev(ptr noundef nonnull align 8 dereferenceable(32) %format) #3
  ret void
}