; Function Attrs: mustprogress nounwind uwtable
define internal void @_ZN4node4quic12_GLOBAL__N_116ngtcp2_debug_logEPvPKcz(ptr nocapture readnone %user_data, ptr noundef %fmt, ...) #5 {
entry:
  %ap = alloca [1 x %struct.__va_list_tag], align 16
  %format = alloca %"class.std::__cxx11::basic_string", align 8
  %ref.tmp = alloca %"class.std::allocator", align 1
  call void @llvm.va_start(ptr nonnull %ap)
  %call = call i64 @strlen(ptr noundef nonnull dereferenceable(1) %fmt) #30
  %add = add i64 %call, 1
  call void @_ZNSaIcEC1Ev(ptr noundef nonnull align 1 dereferenceable(1) %ref.tmp) #28
  call void @_ZNSt7__cxx1112basic_stringIcSt11char_traitsIcESaIcEEC1EPKcmRKS3_(ptr noundef nonnull align 8 dereferenceable(32) %format, ptr noundef %fmt, i64 noundef %add, ptr noundef nonnull align 1 dereferenceable(1) %ref.tmp) #28
  call void @_ZNSaIcED1Ev(ptr noundef nonnull align 1 dereferenceable(1) %ref.tmp) #28
  %call1 = call i64 @strlen(ptr noundef nonnull dereferenceable(1) %fmt) #30
  %call2 = call noundef nonnull align 1 dereferenceable(1) ptr @_ZNSt7__cxx1112basic_stringIcSt11char_traitsIcESaIcEEixEm(ptr noundef nonnull align 8 dereferenceable(32) %format, i64 noundef %call1) #28
  store i8 10, ptr %call2, align 1
  %0 = load ptr, ptr @stderr, align 8
  %call3 = call noundef ptr @_ZNKSt7__cxx1112basic_stringIcSt11char_traitsIcESaIcEE5c_strEv(ptr noundef nonnull align 8 dereferenceable(32) %format) #28
  %call5 = call i32 @vfprintf(ptr noundef %0, ptr noundef %call3, ptr noundef nonnull %ap) #31
  call void @llvm.va_end(ptr nonnull %ap)
  call void @_ZNSt7__cxx1112basic_stringIcSt11char_traitsIcESaIcEED1Ev(ptr noundef nonnull align 8 dereferenceable(32) %format) #28
  ret void
}